target datalayout = "e-m:e-p270:32:32-p271:32:32-p272:64:64-i64:64-i128:128-f80:128-n8:16:32:64-S128"
target triple = "x86_64-pc-linux-gnu"

%struct.init_section_info = type { [4096 x i8], [32 x i8] }

@.str.89 = private unnamed_addr constant [5 x i8] c"URI=\00", align 1
@.str.110 = private unnamed_addr constant [11 x i8] c"BYTERANGE=\00", align 1

; Function Attrs: nounwind uwtable
define internal void @handle_init_section_args(ptr noundef %0, ptr noundef %1, i32 noundef %2, ptr noundef %3, ptr noundef %4) #0 {
  %6 = alloca ptr, align 8
  %7 = alloca ptr, align 8
  %8 = alloca i32, align 4
  %9 = alloca ptr, align 8
  %10 = alloca ptr, align 8
  store ptr %0, ptr %6, align 8, !tbaa !253
  store ptr %1, ptr %7, align 8, !tbaa !125
  store i32 %2, ptr %8, align 4, !tbaa !14
  store ptr %3, ptr %9, align 8, !tbaa !243
  store ptr %4, ptr %10, align 8, !tbaa !245
  %11 = load ptr, ptr %7, align 8, !tbaa !125
  %12 = load i32, ptr %8, align 4, !tbaa !14
  %13 = sext i32 %12 to i64
  %14 = call i32 @strncmp(ptr noundef %11, ptr noundef @.str.89, i64 noundef %13) #14
  %15 = icmp ne i32 %14, 0
  br i1 %15, label %22, label %16

16:                                               ; preds = %5
  %17 = load ptr, ptr %6, align 8, !tbaa !253
  %18 = getelementptr inbounds nuw %struct.init_section_info, ptr %17, i32 0, i32 0
  %19 = getelementptr inbounds [4096 x i8], ptr %18, i64 0, i64 0
  %20 = load ptr, ptr %9, align 8, !tbaa !243
  store ptr %19, ptr %20, align 8, !tbaa !125
  %21 = load ptr, ptr %10, align 8, !tbaa !245
  store i32 4096, ptr %21, align 4, !tbaa !14
  br label %35

22:                                               ; preds = %5
  %23 = load ptr, ptr %7, align 8, !tbaa !125
  %24 = load i32, ptr %8, align 4, !tbaa !14
  %25 = sext i32 %24 to i64
  %26 = call i32 @strncmp(ptr noundef %23, ptr noundef @.str.110, i64 noundef %25) #14
  %27 = icmp ne i32 %26, 0
  br i1 %27, label %34, label %28

28:                                               ; preds = %22
  %29 = load ptr, ptr %6, align 8, !tbaa !253
  %30 = getelementptr inbounds nuw %struct.init_section_info, ptr %29, i32 0, i32 1
  %31 = getelementptr inbounds [32 x i8], ptr %30, i64 0, i64 0
  %32 = load ptr, ptr %9, align 8, !tbaa !243
  store ptr %31, ptr %32, align 8, !tbaa !125
  %33 = load ptr, ptr %10, align 8, !tbaa !245
  store i32 32, ptr %33, align 4, !tbaa !14
  br label %34

34:                                               ; preds = %28, %22
  br label %35

35:                                               ; preds = %34, %16
  ret void
}