; Function Attrs: mustprogress nofree norecurse nounwind willreturn memory(argmem: readwrite) uwtable
define internal void @handle_init_section_args(ptr noundef %0, ptr noundef readonly captures(none) %1, i32 noundef %2, ptr noundef writeonly captures(none) %3, ptr noundef writeonly captures(none) %4) #6 {
  %6 = sext i32 %2 to i64
  %7 = tail call i32 @strncmp(ptr noundef %1, ptr noundef nonnull @.str.89, i64 noundef %6) #15
  %.not = icmp eq i32 %7, 0
  br i1 %.not, label %.sink.split, label %8

8:                                                ; preds = %5
  %9 = tail call i32 @strncmp(ptr noundef %1, ptr noundef nonnull @.str.110, i64 noundef %6) #15
  %.not9 = icmp eq i32 %9, 0
  br i1 %.not9, label %10, label %12

10:                                               ; preds = %8
  %11 = getelementptr inbounds nuw i8, ptr %0, i64 4096
  br label %.sink.split

.sink.split:                                      ; preds = %5, %10
  %.sink10 = phi ptr [ %11, %10 ], [ %0, %5 ]
  %.sink = phi i32 [ 32, %10 ], [ 4096, %5 ]
  store ptr %.sink10, ptr %3, align 8, !tbaa !223
  store i32 %.sink, ptr %4, align 4, !tbaa !168
  br label %12

12:                                               ; preds = %.sink.split, %8
  ret void
}